target datalayout = "e-m:e-p270:32:32-p271:32:32-p272:64:64-i64:64-i128:128-f80:128-n8:16:32:64-S128"
target triple = "x86_64-pc-linux-gnu"

%"class.std::chrono::duration" = type { i64 }
%"class.std::chrono::time_point" = type { %"class.std::chrono::duration" }
%"class.absl::Duration" = type { %"class.absl::Duration::HiRep", i32 }
%"class.absl::Duration::HiRep" = type { i32, i32 }
%"class.absl::synchronization_internal::KernelTimeout" = type { i64 }
%struct.timespec = type { i64, i64 }

; Function Attrs: mustprogress nounwind uwtable
define linkonce_odr dso_local noundef nonnull align 4 dereferenceable(8) ptr @_ZN4absl8Duration5HiRepaSEl(ptr noundef nonnull align 4 dereferenceable(8) %0, i64 noundef %1) #3 comdat align 2 {
  %3 = alloca ptr, align 8
  %4 = alloca i64, align 8
  %5 = alloca i64, align 8
  store ptr %0, ptr %3, align 8, !tbaa !39
  store i64 %1, ptr %4, align 8, !tbaa !12
  %6 = load ptr, ptr %3, align 8
  call void @llvm.lifetime.start.p0(i64 8, ptr %5) #12
  %7 = load i64, ptr %4, align 8, !tbaa !12
  store i64 %7, ptr %5, align 8, !tbaa !12
  %8 = load i64, ptr %5, align 8, !tbaa !12
  %9 = lshr i64 %8, 32
  %10 = trunc i64 %9 to i32
  %11 = getelementptr inbounds nuw %"class.absl::Duration::HiRep", ptr %6, i32 0, i32 1
  store i32 %10, ptr %11, align 4, !tbaa !42
  %12 = load i64, ptr %5, align 8, !tbaa !12
  %13 = trunc i64 %12 to i32
  %14 = getelementptr inbounds nuw %"class.absl::Duration::HiRep", ptr %6, i32 0, i32 0
  store i32 %13, ptr %14, align 4, !tbaa !41
  call void @llvm.lifetime.end.p0(i64 8, ptr %5) #12
  ret ptr %6
}

; Function Attrs: mustprogress uwtable
define linkonce_odr dso_local void @_ZN4absl8Duration5HiRepC2El(ptr noundef nonnull align 4 dereferenceable(8) %0, i64 noundef %1) unnamed_addr #0 comdat align 2 {
  %3 = alloca ptr, align 8
  %4 = alloca i64, align 8
  store ptr %0, ptr %3, align 8, !tbaa !39
  store i64 %1, ptr %4, align 8, !tbaa !12
  %5 = load ptr, ptr %3, align 8
  %6 = getelementptr inbounds nuw %"class.absl::Duration::HiRep", ptr %5, i32 0, i32 0
  store i32 0, ptr %6, align 4, !tbaa !41
  %7 = getelementptr inbounds nuw %"class.absl::Duration::HiRep", ptr %5, i32 0, i32 1
  store i32 0, ptr %7, align 4, !tbaa !42
  %8 = load i64, ptr %4, align 8, !tbaa !12
  %9 = call noundef nonnull align 4 dereferenceable(8) ptr @_ZN4absl8Duration5HiRepaSEl(ptr noundef nonnull align 4 dereferenceable(8) %5, i64 noundef %8)
  ret void
}

; Function Attrs: mustprogress uwtable
define linkonce_odr dso_local void @_ZN4absl8DurationC2Elj(ptr noundef nonnull align 4 dereferenceable(12) %0, i64 noundef %1, i32 noundef %2) unnamed_addr #0 comdat align 2 {
  %4 = alloca ptr, align 8
  %5 = alloca i64, align 8
  %6 = alloca i32, align 4
  store ptr %0, ptr %4, align 8, !tbaa !34
  store i64 %1, ptr %5, align 8, !tbaa !12
  store i32 %2, ptr %6, align 4, !tbaa !19
  %7 = load ptr, ptr %4, align 8
  %8 = getelementptr inbounds nuw %"class.absl::Duration", ptr %7, i32 0, i32 0
  %9 = load i64, ptr %5, align 8, !tbaa !12
  call void @_ZN4absl8Duration5HiRepC2El(ptr noundef nonnull align 4 dereferenceable(8) %8, i64 noundef %9)
  %10 = getelementptr inbounds nuw %"class.absl::Duration", ptr %7, i32 0, i32 1
  %11 = load i32, ptr %6, align 4, !tbaa !19
  store i32 %11, ptr %10, align 4, !tbaa !36
  ret void
}

; Function Attrs: mustprogress nounwind willreturn memory(none) uwtable
define linkonce_odr dso_local { i64, i32 } @_ZN4absl13time_internal12MakeDurationElj(i64 noundef %0, i32 noundef %1) #5 comdat {
  %3 = alloca %"class.absl::Duration", align 4
  %4 = alloca i64, align 8
  %5 = alloca i32, align 4
  %6 = alloca { i64, i32 }, align 8
  store i64 %0, ptr %4, align 8, !tbaa !12
  store i32 %1, ptr %5, align 4, !tbaa !19
  %7 = load i64, ptr %4, align 8, !tbaa !12
  %8 = load i32, ptr %5, align 4, !tbaa !19
  call void @_ZN4absl8DurationC2Elj(ptr noundef nonnull align 4 dereferenceable(12) %3, i64 noundef %7, i32 noundef %8)
  call void @llvm.memcpy.p0.p0.i64(ptr align 8 %6, ptr align 4 %3, i64 12, i1 false)
  %9 = load { i64, i32 }, ptr %6, align 8
  ret { i64, i32 } %9
}

; Function Attrs: mustprogress nounwind uwtable
define linkonce_odr dso_local void @_ZNSt6chrono8durationIlSt5ratioILl1ELl1000000000EEEC2IlvEERKT_(ptr noundef nonnull align 8 dereferenceable(8) %0, ptr noundef nonnull align 8 dereferenceable(8) %1) unnamed_addr #3 comdat align 2 {
  %3 = alloca ptr, align 8
  %4 = alloca ptr, align 8
  store ptr %0, ptr %3, align 8, !tbaa !4
  store ptr %1, ptr %4, align 8, !tbaa !23
  %5 = load ptr, ptr %3, align 8
  %6 = getelementptr inbounds nuw %"class.std::chrono::duration", ptr %5, i32 0, i32 0
  %7 = load ptr, ptr %4, align 8, !tbaa !23
  %8 = load i64, ptr %7, align 8, !tbaa !12
  store i64 %8, ptr %6, align 8, !tbaa !14
  ret void
}

; Function Attrs: mustprogress nounwind willreturn memory(none) uwtable
define linkonce_odr dso_local { i64, i32 } @_ZN4absl13time_internal12MakeDurationEll(i64 noundef %0, i64 noundef %1) #5 comdat {
  %3 = alloca %"class.absl::Duration", align 4
  %4 = alloca i64, align 8
  %5 = alloca i64, align 8
  %6 = alloca { i64, i32 }, align 8
  %7 = alloca { i64, i32 }, align 8
  store i64 %0, ptr %4, align 8, !tbaa !12
  store i64 %1, ptr %5, align 8, !tbaa !12
  %8 = load i64, ptr %4, align 8, !tbaa !12
  %9 = load i64, ptr %5, align 8, !tbaa !12
  %10 = trunc i64 %9 to i32
  %11 = call { i64, i32 } @_ZN4absl13time_internal12MakeDurationElj(i64 noundef %8, i32 noundef %10) #13
  store { i64, i32 } %11, ptr %6, align 8
  call void @llvm.memcpy.p0.p0.i64(ptr align 4 %3, ptr align 8 %6, i64 12, i1 false)
  call void @llvm.memcpy.p0.p0.i64(ptr align 8 %7, ptr align 4 %3, i64 12, i1 false)
  %12 = load { i64, i32 }, ptr %7, align 8
  ret { i64, i32 } %12
}

; Function Attrs: mustprogress uwtable
define linkonce_odr dso_local i64 @_ZNSt6chrono20__duration_cast_implINS_8durationIlSt5ratioILl1ELl1000000000EEEES2_ILl1ELl1EElLb1ELb1EE6__castIlS3_EES4_RKNS1_IT_T0_EE(ptr noundef nonnull align 8 dereferenceable(8) %0) #0 comdat align 2 {
  %2 = alloca %"class.std::chrono::duration", align 8
  %3 = alloca ptr, align 8
  %4 = alloca i64, align 8
  store ptr %0, ptr %3, align 8, !tbaa !4
  call void @llvm.lifetime.start.p0(i64 8, ptr %4) #12
  %5 = load ptr, ptr %3, align 8, !tbaa !4
  %6 = call noundef i64 @_ZNKSt6chrono8durationIlSt5ratioILl1ELl1000000000EEE5countEv(ptr noundef nonnull align 8 dereferenceable(8) %5)
  store i64 %6, ptr %4, align 8, !tbaa !12
  call void @_ZNSt6chrono8durationIlSt5ratioILl1ELl1000000000EEEC2IlvEERKT_(ptr noundef nonnull align 8 dereferenceable(8) %2, ptr noundef nonnull align 8 dereferenceable(8) %4)
  call void @llvm.lifetime.end.p0(i64 8, ptr %4) #12
  %7 = getelementptr inbounds nuw %"class.std::chrono::duration", ptr %2, i32 0, i32 0
  %8 = load i64, ptr %7, align 8
  ret i64 %8
}

; Function Attrs: mustprogress nounwind willreturn memory(none) uwtable
define linkonce_odr dso_local { i64, i32 } @_ZN4absl13time_internal22MakeNormalizedDurationEll(i64 noundef %0, i64 noundef %1) #5 comdat {
  %3 = alloca %"class.absl::Duration", align 4
  %4 = alloca i64, align 8
  %5 = alloca i64, align 8
  %6 = alloca { i64, i32 }, align 8
  %7 = alloca { i64, i32 }, align 8
  %8 = alloca { i64, i32 }, align 8
  store i64 %0, ptr %4, align 8, !tbaa !12
  store i64 %1, ptr %5, align 8, !tbaa !12
  %9 = load i64, ptr %5, align 8, !tbaa !12
  %10 = icmp slt i64 %9, 0
  br i1 %10, label %11, label %17

11:                                               ; preds = %2
  %12 = load i64, ptr %4, align 8, !tbaa !12
  %13 = sub nsw i64 %12, 1
  %14 = load i64, ptr %5, align 8, !tbaa !12
  %15 = add nsw i64 %14, 4000000000
  %16 = call { i64, i32 } @_ZN4absl13time_internal12MakeDurationEll(i64 noundef %13, i64 noundef %15) #13
  store { i64, i32 } %16, ptr %6, align 8
  call void @llvm.memcpy.p0.p0.i64(ptr align 4 %3, ptr align 8 %6, i64 12, i1 false)
  br label %21

17:                                               ; preds = %2
  %18 = load i64, ptr %4, align 8, !tbaa !12
  %19 = load i64, ptr %5, align 8, !tbaa !12
  %20 = call { i64, i32 } @_ZN4absl13time_internal12MakeDurationEll(i64 noundef %18, i64 noundef %19) #13
  store { i64, i32 } %20, ptr %7, align 8
  call void @llvm.memcpy.p0.p0.i64(ptr align 4 %3, ptr align 8 %7, i64 12, i1 false)
  br label %21

21:                                               ; preds = %17, %11
  call void @llvm.memcpy.p0.p0.i64(ptr align 8 %8, ptr align 4 %3, i64 12, i1 false)
  %22 = load { i64, i32 }, ptr %8, align 8
  ret { i64, i32 } %22
}

; Function Attrs: mustprogress nounwind uwtable
define linkonce_odr dso_local noundef i64 @_ZNKSt6chrono8durationIlSt5ratioILl1ELl1000000000EEE5countEv(ptr noundef nonnull align 8 dereferenceable(8) %0) #3 comdat align 2 {
  %2 = alloca ptr, align 8
  store ptr %0, ptr %2, align 8, !tbaa !4
  %3 = load ptr, ptr %2, align 8
  %4 = getelementptr inbounds nuw %"class.std::chrono::duration", ptr %3, i32 0, i32 0
  %5 = load i64, ptr %4, align 8, !tbaa !14
  ret i64 %5
}

; Function Attrs: mustprogress uwtable
define linkonce_odr dso_local i64 @_ZNSt6chrono13duration_castINS_8durationIlSt5ratioILl1ELl1000000000EEEElS3_EENSt9enable_ifIXsr13__is_durationIT_EE5valueES6_E4typeERKNS1_IT0_T1_EE(ptr noundef nonnull align 8 dereferenceable(8) %0) #0 comdat {
  %2 = alloca %"class.std::chrono::duration", align 8
  %3 = alloca ptr, align 8
  store ptr %0, ptr %3, align 8, !tbaa !4
  %4 = load ptr, ptr %3, align 8, !tbaa !4
  %5 = call i64 @_ZNSt6chrono20__duration_cast_implINS_8durationIlSt5ratioILl1ELl1000000000EEEES2_ILl1ELl1EElLb1ELb1EE6__castIlS3_EES4_RKNS1_IT_T0_EE(ptr noundef nonnull align 8 dereferenceable(8) %4)
  %6 = getelementptr inbounds nuw %"class.std::chrono::duration", ptr %2, i32 0, i32 0
  store i64 %5, ptr %6, align 8
  %7 = getelementptr inbounds nuw %"class.std::chrono::duration", ptr %2, i32 0, i32 0
  %8 = load i64, ptr %7, align 8
  ret i64 %8
}

; Function Attrs: mustprogress nounwind uwtable
define linkonce_odr dso_local i64 @_ZNKSt6chrono10time_pointINS_3_V212steady_clockENS_8durationIlSt5ratioILl1ELl1000000000EEEEE16time_since_epochEv(ptr noundef nonnull align 8 dereferenceable(8) %0) #3 comdat align 2 {
  %2 = alloca %"class.std::chrono::duration", align 8
  %3 = alloca ptr, align 8
  store ptr %0, ptr %3, align 8, !tbaa !9
  %4 = load ptr, ptr %3, align 8
  %5 = getelementptr inbounds nuw %"class.std::chrono::time_point", ptr %4, i32 0, i32 0
  call void @llvm.memcpy.p0.p0.i64(ptr align 8 %2, ptr align 8 %5, i64 8, i1 false), !tbaa.struct !11
  %6 = getelementptr inbounds nuw %"class.std::chrono::duration", ptr %2, i32 0, i32 0
  %7 = load i64, ptr %6, align 8
  ret i64 %7
}

; Function Attrs: mustprogress nounwind willreturn memory(none) uwtable
define linkonce_odr dso_local { i64, i32 } @_ZN4absl13time_internal9FromInt64ILl1000000000EEENS_8DurationElSt5ratioILl1EXT_EE(i64 noundef %0) #5 comdat {
  %2 = alloca %"class.absl::Duration", align 4
  %3 = alloca i64, align 8
  %4 = alloca { i64, i32 }, align 8
  %5 = alloca { i64, i32 }, align 8
  store i64 %0, ptr %3, align 8, !tbaa !12
  %6 = load i64, ptr %3, align 8, !tbaa !12
  %7 = sdiv i64 %6, 1000000000
  %8 = load i64, ptr %3, align 8, !tbaa !12
  %9 = srem i64 %8, 1000000000
  %10 = mul nsw i64 %9, 4
  %11 = mul nsw i64 %10, 1000
  %12 = mul nsw i64 %11, 1000
  %13 = mul nsw i64 %12, 1000
  %14 = sdiv i64 %13, 1000000000
  %15 = call { i64, i32 } @_ZN4absl13time_internal22MakeNormalizedDurationEll(i64 noundef %7, i64 noundef %14) #13
  store { i64, i32 } %15, ptr %4, align 8
  call void @llvm.memcpy.p0.p0.i64(ptr align 4 %2, ptr align 8 %4, i64 12, i1 false)
  call void @llvm.memcpy.p0.p0.i64(ptr align 8 %5, ptr align 4 %2, i64 12, i1 false)
  %16 = load { i64, i32 }, ptr %5, align 8
  ret { i64, i32 } %16
}

; Function Attrs: mustprogress uwtable
define dso_local noundef i64 @_ZN4absl24synchronization_internal13KernelTimeout14SteadyClockNowEv() #0 align 2 {
  %1 = alloca %"class.std::chrono::duration", align 8
  %2 = alloca %"class.std::chrono::duration", align 8
  %3 = alloca %"class.std::chrono::time_point", align 8
  call void @llvm.lifetime.start.p0(i64 8, ptr %1) #12
  call void @llvm.lifetime.start.p0(i64 8, ptr %2) #12
  call void @llvm.lifetime.start.p0(i64 8, ptr %3) #12
  %4 = call i64 @_ZNSt6chrono3_V212steady_clock3nowEv() #12
  %5 = getelementptr inbounds nuw %"class.std::chrono::time_point", ptr %3, i32 0, i32 0
  %6 = getelementptr inbounds nuw %"class.std::chrono::duration", ptr %5, i32 0, i32 0
  store i64 %4, ptr %6, align 8
  %7 = call i64 @_ZNKSt6chrono10time_pointINS_3_V212steady_clockENS_8durationIlSt5ratioILl1ELl1000000000EEEEE16time_since_epochEv(ptr noundef nonnull align 8 dereferenceable(8) %3)
  %8 = getelementptr inbounds nuw %"class.std::chrono::duration", ptr %2, i32 0, i32 0
  store i64 %7, ptr %8, align 8
  %9 = call i64 @_ZNSt6chrono13duration_castINS_8durationIlSt5ratioILl1ELl1000000000EEEElS3_EENSt9enable_ifIXsr13__is_durationIT_EE5valueES6_E4typeERKNS1_IT0_T1_EE(ptr noundef nonnull align 8 dereferenceable(8) %2)
  %10 = getelementptr inbounds nuw %"class.std::chrono::duration", ptr %1, i32 0, i32 0
  store i64 %9, ptr %10, align 8
  %11 = call noundef i64 @_ZNKSt6chrono8durationIlSt5ratioILl1ELl1000000000EEE5countEv(ptr noundef nonnull align 8 dereferenceable(8) %1)
  call void @llvm.lifetime.end.p0(i64 8, ptr %3) #12
  call void @llvm.lifetime.end.p0(i64 8, ptr %2) #12
  call void @llvm.lifetime.end.p0(i64 8, ptr %1) #12
  ret i64 %11
}

; Function Attrs: inlinehint mustprogress nounwind uwtable
define linkonce_odr dso_local noundef nonnull align 8 dereferenceable(8) ptr @_ZSt3maxIlERKT_S2_S2_(ptr noundef nonnull align 8 dereferenceable(8) %0, ptr noundef nonnull align 8 dereferenceable(8) %1) #8 comdat {
  %3 = alloca ptr, align 8
  %4 = alloca ptr, align 8
  %5 = alloca ptr, align 8
  store ptr %0, ptr %4, align 8, !tbaa !23
  store ptr %1, ptr %5, align 8, !tbaa !23
  %6 = load ptr, ptr %4, align 8, !tbaa !23
  %7 = load i64, ptr %6, align 8, !tbaa !12
  %8 = load ptr, ptr %5, align 8, !tbaa !23
  %9 = load i64, ptr %8, align 8, !tbaa !12
  %10 = icmp slt i64 %7, %9
  br i1 %10, label %11, label %13

11:                                               ; preds = %2
  %12 = load ptr, ptr %5, align 8, !tbaa !23
  store ptr %12, ptr %3, align 8
  br label %15

13:                                               ; preds = %2
  %14 = load ptr, ptr %4, align 8, !tbaa !23
  store ptr %14, ptr %3, align 8
  br label %15

15:                                               ; preds = %13, %11
  %16 = load ptr, ptr %3, align 8
  ret ptr %16
}

; Function Attrs: mustprogress nounwind uwtable
define linkonce_odr dso_local noundef zeroext i1 @_ZNK4absl24synchronization_internal13KernelTimeout19is_absolute_timeoutEv(ptr noundef nonnull align 8 dereferenceable(8) %0) #3 comdat align 2 {
  %2 = alloca ptr, align 8
  store ptr %0, ptr %2, align 8, !tbaa !16
  %3 = load ptr, ptr %2, align 8
  %4 = getelementptr inbounds nuw %"class.absl::synchronization_internal::KernelTimeout", ptr %3, i32 0, i32 0
  %5 = load i64, ptr %4, align 8, !tbaa !21
  %6 = and i64 %5, 1
  %7 = icmp eq i64 %6, 0
  ret i1 %7
}

; Function Attrs: mustprogress nounwind uwtable
define linkonce_odr dso_local noundef i64 @_ZNK4absl24synchronization_internal13KernelTimeout11RawAbsNanosEv(ptr noundef nonnull align 8 dereferenceable(8) %0) #3 comdat align 2 {
  %2 = alloca ptr, align 8
  store ptr %0, ptr %2, align 8, !tbaa !16
  %3 = load ptr, ptr %2, align 8
  %4 = getelementptr inbounds nuw %"class.absl::synchronization_internal::KernelTimeout", ptr %3, i32 0, i32 0
  %5 = load i64, ptr %4, align 8, !tbaa !21
  %6 = lshr i64 %5, 1
  ret i64 %6
}

; Function Attrs: mustprogress nounwind uwtable
define linkonce_odr dso_local noundef zeroext i1 @_ZNK4absl24synchronization_internal13KernelTimeout11has_timeoutEv(ptr noundef nonnull align 8 dereferenceable(8) %0) #3 comdat align 2 {
  %2 = alloca ptr, align 8
  store ptr %0, ptr %2, align 8, !tbaa !16
  %3 = load ptr, ptr %2, align 8
  %4 = getelementptr inbounds nuw %"class.absl::synchronization_internal::KernelTimeout", ptr %3, i32 0, i32 0
  %5 = load i64, ptr %4, align 8, !tbaa !21
  %6 = icmp ne i64 %5, -1
  ret i1 %6
}

; Function Attrs: mustprogress nounwind willreturn memory(none) uwtable
define linkonce_odr dso_local { i64, i32 } @_ZN4absl11NanosecondsIlTnNSt9enable_ifIXoosr3std11is_integralIT_EE5valuesr3std7is_enumIS2_EE5valueEiE4typeELi0EEENS_8DurationES2_(i64 noundef %0) #5 comdat {
  %2 = alloca %"class.absl::Duration", align 4
  %3 = alloca i64, align 8
  %4 = alloca { i64, i32 }, align 8
  %5 = alloca { i64, i32 }, align 8
  store i64 %0, ptr %3, align 8, !tbaa !12
  %6 = load i64, ptr %3, align 8, !tbaa !12
  %7 = call { i64, i32 } @_ZN4absl13time_internal9FromInt64ILl1000000000EEENS_8DurationElSt5ratioILl1EXT_EE(i64 noundef %6) #13
  store { i64, i32 } %7, ptr %4, align 8
  call void @llvm.memcpy.p0.p0.i64(ptr align 4 %2, ptr align 8 %4, i64 12, i1 false)
  call void @llvm.memcpy.p0.p0.i64(ptr align 8 %5, ptr align 4 %2, i64 12, i1 false)
  %8 = load { i64, i32 }, ptr %5, align 8
  ret { i64, i32 } %8
}

; Function Attrs: mustprogress uwtable
define dso_local noundef i64 @_ZNK4absl24synchronization_internal13KernelTimeout20InNanosecondsFromNowEv(ptr noundef nonnull align 8 dereferenceable(8) %0) #0 align 2 {
  %2 = alloca i64, align 8
  %3 = alloca ptr, align 8
  %4 = alloca i64, align 8
  %5 = alloca i64, align 8
  %6 = alloca i64, align 8
  %7 = alloca i32, align 4
  %8 = alloca i64, align 8
  %9 = alloca i64, align 8
  store ptr %0, ptr %3, align 8, !tbaa !16
  %10 = load ptr, ptr %3, align 8
  %11 = call noundef zeroext i1 @_ZNK4absl24synchronization_internal13KernelTimeout11has_timeoutEv(ptr noundef nonnull align 8 dereferenceable(8) %10)
  br i1 %11, label %13, label %12

12:                                               ; preds = %1
  store i64 9223372036854775807, ptr %2, align 8
  br label %29

13:                                               ; preds = %1
  call void @llvm.lifetime.start.p0(i64 8, ptr %4) #12
  %14 = call noundef i64 @_ZNK4absl24synchronization_internal13KernelTimeout11RawAbsNanosEv(ptr noundef nonnull align 8 dereferenceable(8) %10)
  store i64 %14, ptr %4, align 8, !tbaa !12
  %15 = call noundef zeroext i1 @_ZNK4absl24synchronization_internal13KernelTimeout19is_absolute_timeoutEv(ptr noundef nonnull align 8 dereferenceable(8) %10)
  br i1 %15, label %16, label %22

16:                                               ; preds = %13
  call void @llvm.lifetime.start.p0(i64 8, ptr %5) #12
  %17 = load i64, ptr %4, align 8, !tbaa !12
  %18 = call noundef i64 @_ZN4absl19GetCurrentTimeNanosEv()
  %19 = sub nsw i64 %17, %18
  store i64 %19, ptr %5, align 8, !tbaa !12
  call void @llvm.lifetime.start.p0(i64 8, ptr %6) #12
  store i64 0, ptr %6, align 8, !tbaa !12
  %20 = call noundef nonnull align 8 dereferenceable(8) ptr @_ZSt3maxIlERKT_S2_S2_(ptr noundef nonnull align 8 dereferenceable(8) %5, ptr noundef nonnull align 8 dereferenceable(8) %6)
  %21 = load i64, ptr %20, align 8, !tbaa !12
  store i64 %21, ptr %2, align 8
  call void @llvm.lifetime.end.p0(i64 8, ptr %6) #12
  call void @llvm.lifetime.end.p0(i64 8, ptr %5) #12
  store i32 1, ptr %7, align 4
  br label %28

22:                                               ; preds = %13
  call void @llvm.lifetime.start.p0(i64 8, ptr %8) #12
  %23 = load i64, ptr %4, align 8, !tbaa !12
  %24 = call noundef i64 @_ZN4absl24synchronization_internal13KernelTimeout14SteadyClockNowEv()
  %25 = sub nsw i64 %23, %24
  store i64 %25, ptr %8, align 8, !tbaa !12
  call void @llvm.lifetime.start.p0(i64 8, ptr %9) #12
  store i64 0, ptr %9, align 8, !tbaa !12
  %26 = call noundef nonnull align 8 dereferenceable(8) ptr @_ZSt3maxIlERKT_S2_S2_(ptr noundef nonnull align 8 dereferenceable(8) %8, ptr noundef nonnull align 8 dereferenceable(8) %9)
  %27 = load i64, ptr %26, align 8, !tbaa !12
  store i64 %27, ptr %2, align 8
  call void @llvm.lifetime.end.p0(i64 8, ptr %9) #12
  call void @llvm.lifetime.end.p0(i64 8, ptr %8) #12
  store i32 1, ptr %7, align 4
  br label %28

28:                                               ; preds = %22, %16
  call void @llvm.lifetime.end.p0(i64 8, ptr %4) #12
  br label %29

29:                                               ; preds = %28, %12
  %30 = load i64, ptr %2, align 8
  ret i64 %30
}

; Function Attrs: mustprogress uwtable
define dso_local { i64, i64 } @_ZNK4absl24synchronization_internal13KernelTimeout20MakeRelativeTimespecEv(ptr noundef nonnull align 8 dereferenceable(8) %0) #0 align 2 {
  %2 = alloca %struct.timespec, align 8
  %3 = alloca ptr, align 8
  %4 = alloca %"class.absl::Duration", align 4
  %5 = alloca { i64, i32 }, align 8
  %6 = alloca { i64, i32 }, align 4
  store ptr %0, ptr %3, align 8, !tbaa !16
  %7 = load ptr, ptr %3, align 8
  %8 = call noundef i64 @_ZNK4absl24synchronization_internal13KernelTimeout20InNanosecondsFromNowEv(ptr noundef nonnull align 8 dereferenceable(8) %7)
  %9 = call { i64, i32 } @_ZN4absl11NanosecondsIlTnNSt9enable_ifIXoosr3std11is_integralIT_EE5valuesr3std7is_enumIS2_EE5valueEiE4typeELi0EEENS_8DurationES2_(i64 noundef %8) #13
  store { i64, i32 } %9, ptr %5, align 8
  call void @llvm.memcpy.p0.p0.i64(ptr align 4 %4, ptr align 8 %5, i64 12, i1 false)
  call void @llvm.memcpy.p0.p0.i64(ptr align 4 %6, ptr align 4 %4, i64 12, i1 false)
  %10 = getelementptr inbounds nuw { i64, i32 }, ptr %6, i32 0, i32 0
  %11 = load i64, ptr %10, align 4
  %12 = getelementptr inbounds nuw { i64, i32 }, ptr %6, i32 0, i32 1
  %13 = load i32, ptr %12, align 4
  %14 = call { i64, i64 } @_ZN4absl10ToTimespecENS_8DurationE(i64 %11, i32 %13) #13
  %15 = getelementptr inbounds nuw { i64, i64 }, ptr %2, i32 0, i32 0
  %16 = extractvalue { i64, i64 } %14, 0
  store i64 %16, ptr %15, align 8
  %17 = getelementptr inbounds nuw { i64, i64 }, ptr %2, i32 0, i32 1
  %18 = extractvalue { i64, i64 } %14, 1
  store i64 %18, ptr %17, align 8
  %19 = load { i64, i64 }, ptr %2, align 8
  ret { i64, i64 } %19
}